
build/src/boot/exception_level/el1/el1_exception_vector.o:     file format elf64-littleaarch64


Disassembly of section .text:

0000000000000000 <el1_irq_init_vectors>:
       0:	10000000 	adr	x0, 800 <el1_vectors>
       4:	d518c000 	msr	vbar_el1, x0
       8:	d65f03c0 	ret
       c:	d503201f 	nop
      10:	d503201f 	nop
      14:	d503201f 	nop
      18:	d503201f 	nop
      1c:	d503201f 	nop
      20:	d503201f 	nop
      24:	d503201f 	nop
      28:	d503201f 	nop
      2c:	d503201f 	nop
      30:	d503201f 	nop
      34:	d503201f 	nop
      38:	d503201f 	nop
      3c:	d503201f 	nop
      40:	d503201f 	nop
      44:	d503201f 	nop
      48:	d503201f 	nop
      4c:	d503201f 	nop
      50:	d503201f 	nop
      54:	d503201f 	nop
      58:	d503201f 	nop
      5c:	d503201f 	nop
      60:	d503201f 	nop
      64:	d503201f 	nop
      68:	d503201f 	nop
      6c:	d503201f 	nop
      70:	d503201f 	nop
      74:	d503201f 	nop
      78:	d503201f 	nop
      7c:	d503201f 	nop
      80:	d503201f 	nop
      84:	d503201f 	nop
      88:	d503201f 	nop
      8c:	d503201f 	nop
      90:	d503201f 	nop
      94:	d503201f 	nop
      98:	d503201f 	nop
      9c:	d503201f 	nop
      a0:	d503201f 	nop
      a4:	d503201f 	nop
      a8:	d503201f 	nop
      ac:	d503201f 	nop
      b0:	d503201f 	nop
      b4:	d503201f 	nop
      b8:	d503201f 	nop
      bc:	d503201f 	nop
      c0:	d503201f 	nop
      c4:	d503201f 	nop
      c8:	d503201f 	nop
      cc:	d503201f 	nop
      d0:	d503201f 	nop
      d4:	d503201f 	nop
      d8:	d503201f 	nop
      dc:	d503201f 	nop
      e0:	d503201f 	nop
      e4:	d503201f 	nop
      e8:	d503201f 	nop
      ec:	d503201f 	nop
      f0:	d503201f 	nop
      f4:	d503201f 	nop
      f8:	d503201f 	nop
      fc:	d503201f 	nop
     100:	d503201f 	nop
     104:	d503201f 	nop
     108:	d503201f 	nop
     10c:	d503201f 	nop
     110:	d503201f 	nop
     114:	d503201f 	nop
     118:	d503201f 	nop
     11c:	d503201f 	nop
     120:	d503201f 	nop
     124:	d503201f 	nop
     128:	d503201f 	nop
     12c:	d503201f 	nop
     130:	d503201f 	nop
     134:	d503201f 	nop
     138:	d503201f 	nop
     13c:	d503201f 	nop
     140:	d503201f 	nop
     144:	d503201f 	nop
     148:	d503201f 	nop
     14c:	d503201f 	nop
     150:	d503201f 	nop
     154:	d503201f 	nop
     158:	d503201f 	nop
     15c:	d503201f 	nop
     160:	d503201f 	nop
     164:	d503201f 	nop
     168:	d503201f 	nop
     16c:	d503201f 	nop
     170:	d503201f 	nop
     174:	d503201f 	nop
     178:	d503201f 	nop
     17c:	d503201f 	nop
     180:	d503201f 	nop
     184:	d503201f 	nop
     188:	d503201f 	nop
     18c:	d503201f 	nop
     190:	d503201f 	nop
     194:	d503201f 	nop
     198:	d503201f 	nop
     19c:	d503201f 	nop
     1a0:	d503201f 	nop
     1a4:	d503201f 	nop
     1a8:	d503201f 	nop
     1ac:	d503201f 	nop
     1b0:	d503201f 	nop
     1b4:	d503201f 	nop
     1b8:	d503201f 	nop
     1bc:	d503201f 	nop
     1c0:	d503201f 	nop
     1c4:	d503201f 	nop
     1c8:	d503201f 	nop
     1cc:	d503201f 	nop
     1d0:	d503201f 	nop
     1d4:	d503201f 	nop
     1d8:	d503201f 	nop
     1dc:	d503201f 	nop
     1e0:	d503201f 	nop
     1e4:	d503201f 	nop
     1e8:	d503201f 	nop
     1ec:	d503201f 	nop
     1f0:	d503201f 	nop
     1f4:	d503201f 	nop
     1f8:	d503201f 	nop
     1fc:	d503201f 	nop
     200:	d503201f 	nop
     204:	d503201f 	nop
     208:	d503201f 	nop
     20c:	d503201f 	nop
     210:	d503201f 	nop
     214:	d503201f 	nop
     218:	d503201f 	nop
     21c:	d503201f 	nop
     220:	d503201f 	nop
     224:	d503201f 	nop
     228:	d503201f 	nop
     22c:	d503201f 	nop
     230:	d503201f 	nop
     234:	d503201f 	nop
     238:	d503201f 	nop
     23c:	d503201f 	nop
     240:	d503201f 	nop
     244:	d503201f 	nop
     248:	d503201f 	nop
     24c:	d503201f 	nop
     250:	d503201f 	nop
     254:	d503201f 	nop
     258:	d503201f 	nop
     25c:	d503201f 	nop
     260:	d503201f 	nop
     264:	d503201f 	nop
     268:	d503201f 	nop
     26c:	d503201f 	nop
     270:	d503201f 	nop
     274:	d503201f 	nop
     278:	d503201f 	nop
     27c:	d503201f 	nop
     280:	d503201f 	nop
     284:	d503201f 	nop
     288:	d503201f 	nop
     28c:	d503201f 	nop
     290:	d503201f 	nop
     294:	d503201f 	nop
     298:	d503201f 	nop
     29c:	d503201f 	nop
     2a0:	d503201f 	nop
     2a4:	d503201f 	nop
     2a8:	d503201f 	nop
     2ac:	d503201f 	nop
     2b0:	d503201f 	nop
     2b4:	d503201f 	nop
     2b8:	d503201f 	nop
     2bc:	d503201f 	nop
     2c0:	d503201f 	nop
     2c4:	d503201f 	nop
     2c8:	d503201f 	nop
     2cc:	d503201f 	nop
     2d0:	d503201f 	nop
     2d4:	d503201f 	nop
     2d8:	d503201f 	nop
     2dc:	d503201f 	nop
     2e0:	d503201f 	nop
     2e4:	d503201f 	nop
     2e8:	d503201f 	nop
     2ec:	d503201f 	nop
     2f0:	d503201f 	nop
     2f4:	d503201f 	nop
     2f8:	d503201f 	nop
     2fc:	d503201f 	nop
     300:	d503201f 	nop
     304:	d503201f 	nop
     308:	d503201f 	nop
     30c:	d503201f 	nop
     310:	d503201f 	nop
     314:	d503201f 	nop
     318:	d503201f 	nop
     31c:	d503201f 	nop
     320:	d503201f 	nop
     324:	d503201f 	nop
     328:	d503201f 	nop
     32c:	d503201f 	nop
     330:	d503201f 	nop
     334:	d503201f 	nop
     338:	d503201f 	nop
     33c:	d503201f 	nop
     340:	d503201f 	nop
     344:	d503201f 	nop
     348:	d503201f 	nop
     34c:	d503201f 	nop
     350:	d503201f 	nop
     354:	d503201f 	nop
     358:	d503201f 	nop
     35c:	d503201f 	nop
     360:	d503201f 	nop
     364:	d503201f 	nop
     368:	d503201f 	nop
     36c:	d503201f 	nop
     370:	d503201f 	nop
     374:	d503201f 	nop
     378:	d503201f 	nop
     37c:	d503201f 	nop
     380:	d503201f 	nop
     384:	d503201f 	nop
     388:	d503201f 	nop
     38c:	d503201f 	nop
     390:	d503201f 	nop
     394:	d503201f 	nop
     398:	d503201f 	nop
     39c:	d503201f 	nop
     3a0:	d503201f 	nop
     3a4:	d503201f 	nop
     3a8:	d503201f 	nop
     3ac:	d503201f 	nop
     3b0:	d503201f 	nop
     3b4:	d503201f 	nop
     3b8:	d503201f 	nop
     3bc:	d503201f 	nop
     3c0:	d503201f 	nop
     3c4:	d503201f 	nop
     3c8:	d503201f 	nop
     3cc:	d503201f 	nop
     3d0:	d503201f 	nop
     3d4:	d503201f 	nop
     3d8:	d503201f 	nop
     3dc:	d503201f 	nop
     3e0:	d503201f 	nop
     3e4:	d503201f 	nop
     3e8:	d503201f 	nop
     3ec:	d503201f 	nop
     3f0:	d503201f 	nop
     3f4:	d503201f 	nop
     3f8:	d503201f 	nop
     3fc:	d503201f 	nop
     400:	d503201f 	nop
     404:	d503201f 	nop
     408:	d503201f 	nop
     40c:	d503201f 	nop
     410:	d503201f 	nop
     414:	d503201f 	nop
     418:	d503201f 	nop
     41c:	d503201f 	nop
     420:	d503201f 	nop
     424:	d503201f 	nop
     428:	d503201f 	nop
     42c:	d503201f 	nop
     430:	d503201f 	nop
     434:	d503201f 	nop
     438:	d503201f 	nop
     43c:	d503201f 	nop
     440:	d503201f 	nop
     444:	d503201f 	nop
     448:	d503201f 	nop
     44c:	d503201f 	nop
     450:	d503201f 	nop
     454:	d503201f 	nop
     458:	d503201f 	nop
     45c:	d503201f 	nop
     460:	d503201f 	nop
     464:	d503201f 	nop
     468:	d503201f 	nop
     46c:	d503201f 	nop
     470:	d503201f 	nop
     474:	d503201f 	nop
     478:	d503201f 	nop
     47c:	d503201f 	nop
     480:	d503201f 	nop
     484:	d503201f 	nop
     488:	d503201f 	nop
     48c:	d503201f 	nop
     490:	d503201f 	nop
     494:	d503201f 	nop
     498:	d503201f 	nop
     49c:	d503201f 	nop
     4a0:	d503201f 	nop
     4a4:	d503201f 	nop
     4a8:	d503201f 	nop
     4ac:	d503201f 	nop
     4b0:	d503201f 	nop
     4b4:	d503201f 	nop
     4b8:	d503201f 	nop
     4bc:	d503201f 	nop
     4c0:	d503201f 	nop
     4c4:	d503201f 	nop
     4c8:	d503201f 	nop
     4cc:	d503201f 	nop
     4d0:	d503201f 	nop
     4d4:	d503201f 	nop
     4d8:	d503201f 	nop
     4dc:	d503201f 	nop
     4e0:	d503201f 	nop
     4e4:	d503201f 	nop
     4e8:	d503201f 	nop
     4ec:	d503201f 	nop
     4f0:	d503201f 	nop
     4f4:	d503201f 	nop
     4f8:	d503201f 	nop
     4fc:	d503201f 	nop
     500:	d503201f 	nop
     504:	d503201f 	nop
     508:	d503201f 	nop
     50c:	d503201f 	nop
     510:	d503201f 	nop
     514:	d503201f 	nop
     518:	d503201f 	nop
     51c:	d503201f 	nop
     520:	d503201f 	nop
     524:	d503201f 	nop
     528:	d503201f 	nop
     52c:	d503201f 	nop
     530:	d503201f 	nop
     534:	d503201f 	nop
     538:	d503201f 	nop
     53c:	d503201f 	nop
     540:	d503201f 	nop
     544:	d503201f 	nop
     548:	d503201f 	nop
     54c:	d503201f 	nop
     550:	d503201f 	nop
     554:	d503201f 	nop
     558:	d503201f 	nop
     55c:	d503201f 	nop
     560:	d503201f 	nop
     564:	d503201f 	nop
     568:	d503201f 	nop
     56c:	d503201f 	nop
     570:	d503201f 	nop
     574:	d503201f 	nop
     578:	d503201f 	nop
     57c:	d503201f 	nop
     580:	d503201f 	nop
     584:	d503201f 	nop
     588:	d503201f 	nop
     58c:	d503201f 	nop
     590:	d503201f 	nop
     594:	d503201f 	nop
     598:	d503201f 	nop
     59c:	d503201f 	nop
     5a0:	d503201f 	nop
     5a4:	d503201f 	nop
     5a8:	d503201f 	nop
     5ac:	d503201f 	nop
     5b0:	d503201f 	nop
     5b4:	d503201f 	nop
     5b8:	d503201f 	nop
     5bc:	d503201f 	nop
     5c0:	d503201f 	nop
     5c4:	d503201f 	nop
     5c8:	d503201f 	nop
     5cc:	d503201f 	nop
     5d0:	d503201f 	nop
     5d4:	d503201f 	nop
     5d8:	d503201f 	nop
     5dc:	d503201f 	nop
     5e0:	d503201f 	nop
     5e4:	d503201f 	nop
     5e8:	d503201f 	nop
     5ec:	d503201f 	nop
     5f0:	d503201f 	nop
     5f4:	d503201f 	nop
     5f8:	d503201f 	nop
     5fc:	d503201f 	nop
     600:	d503201f 	nop
     604:	d503201f 	nop
     608:	d503201f 	nop
     60c:	d503201f 	nop
     610:	d503201f 	nop
     614:	d503201f 	nop
     618:	d503201f 	nop
     61c:	d503201f 	nop
     620:	d503201f 	nop
     624:	d503201f 	nop
     628:	d503201f 	nop
     62c:	d503201f 	nop
     630:	d503201f 	nop
     634:	d503201f 	nop
     638:	d503201f 	nop
     63c:	d503201f 	nop
     640:	d503201f 	nop
     644:	d503201f 	nop
     648:	d503201f 	nop
     64c:	d503201f 	nop
     650:	d503201f 	nop
     654:	d503201f 	nop
     658:	d503201f 	nop
     65c:	d503201f 	nop
     660:	d503201f 	nop
     664:	d503201f 	nop
     668:	d503201f 	nop
     66c:	d503201f 	nop
     670:	d503201f 	nop
     674:	d503201f 	nop
     678:	d503201f 	nop
     67c:	d503201f 	nop
     680:	d503201f 	nop
     684:	d503201f 	nop
     688:	d503201f 	nop
     68c:	d503201f 	nop
     690:	d503201f 	nop
     694:	d503201f 	nop
     698:	d503201f 	nop
     69c:	d503201f 	nop
     6a0:	d503201f 	nop
     6a4:	d503201f 	nop
     6a8:	d503201f 	nop
     6ac:	d503201f 	nop
     6b0:	d503201f 	nop
     6b4:	d503201f 	nop
     6b8:	d503201f 	nop
     6bc:	d503201f 	nop
     6c0:	d503201f 	nop
     6c4:	d503201f 	nop
     6c8:	d503201f 	nop
     6cc:	d503201f 	nop
     6d0:	d503201f 	nop
     6d4:	d503201f 	nop
     6d8:	d503201f 	nop
     6dc:	d503201f 	nop
     6e0:	d503201f 	nop
     6e4:	d503201f 	nop
     6e8:	d503201f 	nop
     6ec:	d503201f 	nop
     6f0:	d503201f 	nop
     6f4:	d503201f 	nop
     6f8:	d503201f 	nop
     6fc:	d503201f 	nop
     700:	d503201f 	nop
     704:	d503201f 	nop
     708:	d503201f 	nop
     70c:	d503201f 	nop
     710:	d503201f 	nop
     714:	d503201f 	nop
     718:	d503201f 	nop
     71c:	d503201f 	nop
     720:	d503201f 	nop
     724:	d503201f 	nop
     728:	d503201f 	nop
     72c:	d503201f 	nop
     730:	d503201f 	nop
     734:	d503201f 	nop
     738:	d503201f 	nop
     73c:	d503201f 	nop
     740:	d503201f 	nop
     744:	d503201f 	nop
     748:	d503201f 	nop
     74c:	d503201f 	nop
     750:	d503201f 	nop
     754:	d503201f 	nop
     758:	d503201f 	nop
     75c:	d503201f 	nop
     760:	d503201f 	nop
     764:	d503201f 	nop
     768:	d503201f 	nop
     76c:	d503201f 	nop
     770:	d503201f 	nop
     774:	d503201f 	nop
     778:	d503201f 	nop
     77c:	d503201f 	nop
     780:	d503201f 	nop
     784:	d503201f 	nop
     788:	d503201f 	nop
     78c:	d503201f 	nop
     790:	d503201f 	nop
     794:	d503201f 	nop
     798:	d503201f 	nop
     79c:	d503201f 	nop
     7a0:	d503201f 	nop
     7a4:	d503201f 	nop
     7a8:	d503201f 	nop
     7ac:	d503201f 	nop
     7b0:	d503201f 	nop
     7b4:	d503201f 	nop
     7b8:	d503201f 	nop
     7bc:	d503201f 	nop
     7c0:	d503201f 	nop
     7c4:	d503201f 	nop
     7c8:	d503201f 	nop
     7cc:	d503201f 	nop
     7d0:	d503201f 	nop
     7d4:	d503201f 	nop
     7d8:	d503201f 	nop
     7dc:	d503201f 	nop
     7e0:	d503201f 	nop
     7e4:	d503201f 	nop
     7e8:	d503201f 	nop
     7ec:	d503201f 	nop
     7f0:	d503201f 	nop
     7f4:	d503201f 	nop
     7f8:	d503201f 	nop
     7fc:	d503201f 	nop

0000000000000800 <el1_vectors>:
     800:	140001e1 	b	f84 <__sync_el1t>
     804:	d503201f 	nop
     808:	d503201f 	nop
     80c:	d503201f 	nop
     810:	d503201f 	nop
     814:	d503201f 	nop
     818:	d503201f 	nop
     81c:	d503201f 	nop
     820:	d503201f 	nop
     824:	d503201f 	nop
     828:	d503201f 	nop
     82c:	d503201f 	nop
     830:	d503201f 	nop
     834:	d503201f 	nop
     838:	d503201f 	nop
     83c:	d503201f 	nop
     840:	d503201f 	nop
     844:	d503201f 	nop
     848:	d503201f 	nop
     84c:	d503201f 	nop
     850:	d503201f 	nop
     854:	d503201f 	nop
     858:	d503201f 	nop
     85c:	d503201f 	nop
     860:	d503201f 	nop
     864:	d503201f 	nop
     868:	d503201f 	nop
     86c:	d503201f 	nop
     870:	d503201f 	nop
     874:	d503201f 	nop
     878:	d503201f 	nop
     87c:	d503201f 	nop
     880:	140001e8 	b	1020 <__irq_el1t>
     884:	d503201f 	nop
     888:	d503201f 	nop
     88c:	d503201f 	nop
     890:	d503201f 	nop
     894:	d503201f 	nop
     898:	d503201f 	nop
     89c:	d503201f 	nop
     8a0:	d503201f 	nop
     8a4:	d503201f 	nop
     8a8:	d503201f 	nop
     8ac:	d503201f 	nop
     8b0:	d503201f 	nop
     8b4:	d503201f 	nop
     8b8:	d503201f 	nop
     8bc:	d503201f 	nop
     8c0:	d503201f 	nop
     8c4:	d503201f 	nop
     8c8:	d503201f 	nop
     8cc:	d503201f 	nop
     8d0:	d503201f 	nop
     8d4:	d503201f 	nop
     8d8:	d503201f 	nop
     8dc:	d503201f 	nop
     8e0:	d503201f 	nop
     8e4:	d503201f 	nop
     8e8:	d503201f 	nop
     8ec:	d503201f 	nop
     8f0:	d503201f 	nop
     8f4:	d503201f 	nop
     8f8:	d503201f 	nop
     8fc:	d503201f 	nop
     900:	140001ef 	b	10bc <__fiq_el1t>
     904:	d503201f 	nop
     908:	d503201f 	nop
     90c:	d503201f 	nop
     910:	d503201f 	nop
     914:	d503201f 	nop
     918:	d503201f 	nop
     91c:	d503201f 	nop
     920:	d503201f 	nop
     924:	d503201f 	nop
     928:	d503201f 	nop
     92c:	d503201f 	nop
     930:	d503201f 	nop
     934:	d503201f 	nop
     938:	d503201f 	nop
     93c:	d503201f 	nop
     940:	d503201f 	nop
     944:	d503201f 	nop
     948:	d503201f 	nop
     94c:	d503201f 	nop
     950:	d503201f 	nop
     954:	d503201f 	nop
     958:	d503201f 	nop
     95c:	d503201f 	nop
     960:	d503201f 	nop
     964:	d503201f 	nop
     968:	d503201f 	nop
     96c:	d503201f 	nop
     970:	d503201f 	nop
     974:	d503201f 	nop
     978:	d503201f 	nop
     97c:	d503201f 	nop
     980:	140001f6 	b	1158 <__err_el1t>
     984:	d503201f 	nop
     988:	d503201f 	nop
     98c:	d503201f 	nop
     990:	d503201f 	nop
     994:	d503201f 	nop
     998:	d503201f 	nop
     99c:	d503201f 	nop
     9a0:	d503201f 	nop
     9a4:	d503201f 	nop
     9a8:	d503201f 	nop
     9ac:	d503201f 	nop
     9b0:	d503201f 	nop
     9b4:	d503201f 	nop
     9b8:	d503201f 	nop
     9bc:	d503201f 	nop
     9c0:	d503201f 	nop
     9c4:	d503201f 	nop
     9c8:	d503201f 	nop
     9cc:	d503201f 	nop
     9d0:	d503201f 	nop
     9d4:	d503201f 	nop
     9d8:	d503201f 	nop
     9dc:	d503201f 	nop
     9e0:	d503201f 	nop
     9e4:	d503201f 	nop
     9e8:	d503201f 	nop
     9ec:	d503201f 	nop
     9f0:	d503201f 	nop
     9f4:	d503201f 	nop
     9f8:	d503201f 	nop
     9fc:	d503201f 	nop
     a00:	140001fd 	b	11f4 <__sync_el1h>
     a04:	d503201f 	nop
     a08:	d503201f 	nop
     a0c:	d503201f 	nop
     a10:	d503201f 	nop
     a14:	d503201f 	nop
     a18:	d503201f 	nop
     a1c:	d503201f 	nop
     a20:	d503201f 	nop
     a24:	d503201f 	nop
     a28:	d503201f 	nop
     a2c:	d503201f 	nop
     a30:	d503201f 	nop
     a34:	d503201f 	nop
     a38:	d503201f 	nop
     a3c:	d503201f 	nop
     a40:	d503201f 	nop
     a44:	d503201f 	nop
     a48:	d503201f 	nop
     a4c:	d503201f 	nop
     a50:	d503201f 	nop
     a54:	d503201f 	nop
     a58:	d503201f 	nop
     a5c:	d503201f 	nop
     a60:	d503201f 	nop
     a64:	d503201f 	nop
     a68:	d503201f 	nop
     a6c:	d503201f 	nop
     a70:	d503201f 	nop
     a74:	d503201f 	nop
     a78:	d503201f 	nop
     a7c:	d503201f 	nop
     a80:	14000204 	b	1290 <__irq_el1h>
     a84:	d503201f 	nop
     a88:	d503201f 	nop
     a8c:	d503201f 	nop
     a90:	d503201f 	nop
     a94:	d503201f 	nop
     a98:	d503201f 	nop
     a9c:	d503201f 	nop
     aa0:	d503201f 	nop
     aa4:	d503201f 	nop
     aa8:	d503201f 	nop
     aac:	d503201f 	nop
     ab0:	d503201f 	nop
     ab4:	d503201f 	nop
     ab8:	d503201f 	nop
     abc:	d503201f 	nop
     ac0:	d503201f 	nop
     ac4:	d503201f 	nop
     ac8:	d503201f 	nop
     acc:	d503201f 	nop
     ad0:	d503201f 	nop
     ad4:	d503201f 	nop
     ad8:	d503201f 	nop
     adc:	d503201f 	nop
     ae0:	d503201f 	nop
     ae4:	d503201f 	nop
     ae8:	d503201f 	nop
     aec:	d503201f 	nop
     af0:	d503201f 	nop
     af4:	d503201f 	nop
     af8:	d503201f 	nop
     afc:	d503201f 	nop
     b00:	1400020b 	b	132c <__fiq_el1h>
     b04:	d503201f 	nop
     b08:	d503201f 	nop
     b0c:	d503201f 	nop
     b10:	d503201f 	nop
     b14:	d503201f 	nop
     b18:	d503201f 	nop
     b1c:	d503201f 	nop
     b20:	d503201f 	nop
     b24:	d503201f 	nop
     b28:	d503201f 	nop
     b2c:	d503201f 	nop
     b30:	d503201f 	nop
     b34:	d503201f 	nop
     b38:	d503201f 	nop
     b3c:	d503201f 	nop
     b40:	d503201f 	nop
     b44:	d503201f 	nop
     b48:	d503201f 	nop
     b4c:	d503201f 	nop
     b50:	d503201f 	nop
     b54:	d503201f 	nop
     b58:	d503201f 	nop
     b5c:	d503201f 	nop
     b60:	d503201f 	nop
     b64:	d503201f 	nop
     b68:	d503201f 	nop
     b6c:	d503201f 	nop
     b70:	d503201f 	nop
     b74:	d503201f 	nop
     b78:	d503201f 	nop
     b7c:	d503201f 	nop
     b80:	14000212 	b	13c8 <__err_el1h>
     b84:	d503201f 	nop
     b88:	d503201f 	nop
     b8c:	d503201f 	nop
     b90:	d503201f 	nop
     b94:	d503201f 	nop
     b98:	d503201f 	nop
     b9c:	d503201f 	nop
     ba0:	d503201f 	nop
     ba4:	d503201f 	nop
     ba8:	d503201f 	nop
     bac:	d503201f 	nop
     bb0:	d503201f 	nop
     bb4:	d503201f 	nop
     bb8:	d503201f 	nop
     bbc:	d503201f 	nop
     bc0:	d503201f 	nop
     bc4:	d503201f 	nop
     bc8:	d503201f 	nop
     bcc:	d503201f 	nop
     bd0:	d503201f 	nop
     bd4:	d503201f 	nop
     bd8:	d503201f 	nop
     bdc:	d503201f 	nop
     be0:	d503201f 	nop
     be4:	d503201f 	nop
     be8:	d503201f 	nop
     bec:	d503201f 	nop
     bf0:	d503201f 	nop
     bf4:	d503201f 	nop
     bf8:	d503201f 	nop
     bfc:	d503201f 	nop
     c00:	14000219 	b	1464 <__sync_el0_64>
     c04:	d503201f 	nop
     c08:	d503201f 	nop
     c0c:	d503201f 	nop
     c10:	d503201f 	nop
     c14:	d503201f 	nop
     c18:	d503201f 	nop
     c1c:	d503201f 	nop
     c20:	d503201f 	nop
     c24:	d503201f 	nop
     c28:	d503201f 	nop
     c2c:	d503201f 	nop
     c30:	d503201f 	nop
     c34:	d503201f 	nop
     c38:	d503201f 	nop
     c3c:	d503201f 	nop
     c40:	d503201f 	nop
     c44:	d503201f 	nop
     c48:	d503201f 	nop
     c4c:	d503201f 	nop
     c50:	d503201f 	nop
     c54:	d503201f 	nop
     c58:	d503201f 	nop
     c5c:	d503201f 	nop
     c60:	d503201f 	nop
     c64:	d503201f 	nop
     c68:	d503201f 	nop
     c6c:	d503201f 	nop
     c70:	d503201f 	nop
     c74:	d503201f 	nop
     c78:	d503201f 	nop
     c7c:	d503201f 	nop
     c80:	14000220 	b	1500 <__irq_el0_64>
     c84:	d503201f 	nop
     c88:	d503201f 	nop
     c8c:	d503201f 	nop
     c90:	d503201f 	nop
     c94:	d503201f 	nop
     c98:	d503201f 	nop
     c9c:	d503201f 	nop
     ca0:	d503201f 	nop
     ca4:	d503201f 	nop
     ca8:	d503201f 	nop
     cac:	d503201f 	nop
     cb0:	d503201f 	nop
     cb4:	d503201f 	nop
     cb8:	d503201f 	nop
     cbc:	d503201f 	nop
     cc0:	d503201f 	nop
     cc4:	d503201f 	nop
     cc8:	d503201f 	nop
     ccc:	d503201f 	nop
     cd0:	d503201f 	nop
     cd4:	d503201f 	nop
     cd8:	d503201f 	nop
     cdc:	d503201f 	nop
     ce0:	d503201f 	nop
     ce4:	d503201f 	nop
     ce8:	d503201f 	nop
     cec:	d503201f 	nop
     cf0:	d503201f 	nop
     cf4:	d503201f 	nop
     cf8:	d503201f 	nop
     cfc:	d503201f 	nop
     d00:	14000227 	b	159c <__fiq_el0_64>
     d04:	d503201f 	nop
     d08:	d503201f 	nop
     d0c:	d503201f 	nop
     d10:	d503201f 	nop
     d14:	d503201f 	nop
     d18:	d503201f 	nop
     d1c:	d503201f 	nop
     d20:	d503201f 	nop
     d24:	d503201f 	nop
     d28:	d503201f 	nop
     d2c:	d503201f 	nop
     d30:	d503201f 	nop
     d34:	d503201f 	nop
     d38:	d503201f 	nop
     d3c:	d503201f 	nop
     d40:	d503201f 	nop
     d44:	d503201f 	nop
     d48:	d503201f 	nop
     d4c:	d503201f 	nop
     d50:	d503201f 	nop
     d54:	d503201f 	nop
     d58:	d503201f 	nop
     d5c:	d503201f 	nop
     d60:	d503201f 	nop
     d64:	d503201f 	nop
     d68:	d503201f 	nop
     d6c:	d503201f 	nop
     d70:	d503201f 	nop
     d74:	d503201f 	nop
     d78:	d503201f 	nop
     d7c:	d503201f 	nop
     d80:	1400022e 	b	1638 <__err_el0_64>
     d84:	d503201f 	nop
     d88:	d503201f 	nop
     d8c:	d503201f 	nop
     d90:	d503201f 	nop
     d94:	d503201f 	nop
     d98:	d503201f 	nop
     d9c:	d503201f 	nop
     da0:	d503201f 	nop
     da4:	d503201f 	nop
     da8:	d503201f 	nop
     dac:	d503201f 	nop
     db0:	d503201f 	nop
     db4:	d503201f 	nop
     db8:	d503201f 	nop
     dbc:	d503201f 	nop
     dc0:	d503201f 	nop
     dc4:	d503201f 	nop
     dc8:	d503201f 	nop
     dcc:	d503201f 	nop
     dd0:	d503201f 	nop
     dd4:	d503201f 	nop
     dd8:	d503201f 	nop
     ddc:	d503201f 	nop
     de0:	d503201f 	nop
     de4:	d503201f 	nop
     de8:	d503201f 	nop
     dec:	d503201f 	nop
     df0:	d503201f 	nop
     df4:	d503201f 	nop
     df8:	d503201f 	nop
     dfc:	d503201f 	nop
     e00:	14000235 	b	16d4 <__sync_el0_32>
     e04:	d503201f 	nop
     e08:	d503201f 	nop
     e0c:	d503201f 	nop
     e10:	d503201f 	nop
     e14:	d503201f 	nop
     e18:	d503201f 	nop
     e1c:	d503201f 	nop
     e20:	d503201f 	nop
     e24:	d503201f 	nop
     e28:	d503201f 	nop
     e2c:	d503201f 	nop
     e30:	d503201f 	nop
     e34:	d503201f 	nop
     e38:	d503201f 	nop
     e3c:	d503201f 	nop
     e40:	d503201f 	nop
     e44:	d503201f 	nop
     e48:	d503201f 	nop
     e4c:	d503201f 	nop
     e50:	d503201f 	nop
     e54:	d503201f 	nop
     e58:	d503201f 	nop
     e5c:	d503201f 	nop
     e60:	d503201f 	nop
     e64:	d503201f 	nop
     e68:	d503201f 	nop
     e6c:	d503201f 	nop
     e70:	d503201f 	nop
     e74:	d503201f 	nop
     e78:	d503201f 	nop
     e7c:	d503201f 	nop
     e80:	1400023c 	b	1770 <__irq_el0_32>
     e84:	d503201f 	nop
     e88:	d503201f 	nop
     e8c:	d503201f 	nop
     e90:	d503201f 	nop
     e94:	d503201f 	nop
     e98:	d503201f 	nop
     e9c:	d503201f 	nop
     ea0:	d503201f 	nop
     ea4:	d503201f 	nop
     ea8:	d503201f 	nop
     eac:	d503201f 	nop
     eb0:	d503201f 	nop
     eb4:	d503201f 	nop
     eb8:	d503201f 	nop
     ebc:	d503201f 	nop
     ec0:	d503201f 	nop
     ec4:	d503201f 	nop
     ec8:	d503201f 	nop
     ecc:	d503201f 	nop
     ed0:	d503201f 	nop
     ed4:	d503201f 	nop
     ed8:	d503201f 	nop
     edc:	d503201f 	nop
     ee0:	d503201f 	nop
     ee4:	d503201f 	nop
     ee8:	d503201f 	nop
     eec:	d503201f 	nop
     ef0:	d503201f 	nop
     ef4:	d503201f 	nop
     ef8:	d503201f 	nop
     efc:	d503201f 	nop
     f00:	14000243 	b	180c <__fiq_el0_32>
     f04:	d503201f 	nop
     f08:	d503201f 	nop
     f0c:	d503201f 	nop
     f10:	d503201f 	nop
     f14:	d503201f 	nop
     f18:	d503201f 	nop
     f1c:	d503201f 	nop
     f20:	d503201f 	nop
     f24:	d503201f 	nop
     f28:	d503201f 	nop
     f2c:	d503201f 	nop
     f30:	d503201f 	nop
     f34:	d503201f 	nop
     f38:	d503201f 	nop
     f3c:	d503201f 	nop
     f40:	d503201f 	nop
     f44:	d503201f 	nop
     f48:	d503201f 	nop
     f4c:	d503201f 	nop
     f50:	d503201f 	nop
     f54:	d503201f 	nop
     f58:	d503201f 	nop
     f5c:	d503201f 	nop
     f60:	d503201f 	nop
     f64:	d503201f 	nop
     f68:	d503201f 	nop
     f6c:	d503201f 	nop
     f70:	d503201f 	nop
     f74:	d503201f 	nop
     f78:	d503201f 	nop
     f7c:	d503201f 	nop
     f80:	1400024a 	b	18a8 <__err_el0_32>

0000000000000f84 <__sync_el1t>:
     f84:	910003e1 	mov	x1, sp
     f88:	927cec21 	and	x1, x1, #0xfffffffffffffff0
     f8c:	9100003f 	mov	sp, x1
     f90:	d10403ff 	sub	sp, sp, #0x100
     f94:	a90007e0 	stp	x0, x1, [sp]
     f98:	a9010fe2 	stp	x2, x3, [sp, #16]
     f9c:	a90217e4 	stp	x4, x5, [sp, #32]
     fa0:	a9031fe6 	stp	x6, x7, [sp, #48]
     fa4:	a90427e8 	stp	x8, x9, [sp, #64]
     fa8:	a9052fea 	stp	x10, x11, [sp, #80]
     fac:	a90637ec 	stp	x12, x13, [sp, #96]
     fb0:	a9073fee 	stp	x14, x15, [sp, #112]
     fb4:	a90847f0 	stp	x16, x17, [sp, #128]
     fb8:	a9094ff2 	stp	x18, x19, [sp, #144]
     fbc:	a90a57f4 	stp	x20, x21, [sp, #160]
     fc0:	a90b5ff6 	stp	x22, x23, [sp, #176]
     fc4:	a90c67f8 	stp	x24, x25, [sp, #192]
     fc8:	a90d6ffa 	stp	x26, x27, [sp, #208]
     fcc:	a90e77fc 	stp	x28, x29, [sp, #224]
     fd0:	f9007bfe 	str	x30, [sp, #240]
     fd4:	94000000 	bl	0 <sync_el1t>
     fd8:	a94007e0 	ldp	x0, x1, [sp]
     fdc:	a9410fe2 	ldp	x2, x3, [sp, #16]
     fe0:	a94217e4 	ldp	x4, x5, [sp, #32]
     fe4:	a9431fe6 	ldp	x6, x7, [sp, #48]
     fe8:	a94427e8 	ldp	x8, x9, [sp, #64]
     fec:	a9452fea 	ldp	x10, x11, [sp, #80]
     ff0:	a94637ec 	ldp	x12, x13, [sp, #96]
     ff4:	a9473fee 	ldp	x14, x15, [sp, #112]
     ff8:	a94847f0 	ldp	x16, x17, [sp, #128]
     ffc:	a9494ff2 	ldp	x18, x19, [sp, #144]
    1000:	a94a57f4 	ldp	x20, x21, [sp, #160]
    1004:	a94b5ff6 	ldp	x22, x23, [sp, #176]
    1008:	a94c67f8 	ldp	x24, x25, [sp, #192]
    100c:	a94d6ffa 	ldp	x26, x27, [sp, #208]
    1010:	a94e77fc 	ldp	x28, x29, [sp, #224]
    1014:	f9407bfe 	ldr	x30, [sp, #240]
    1018:	910403ff 	add	sp, sp, #0x100
    101c:	d69f03e0 	eret

0000000000001020 <__irq_el1t>:
    1020:	910003e1 	mov	x1, sp
    1024:	927cec21 	and	x1, x1, #0xfffffffffffffff0
    1028:	9100003f 	mov	sp, x1
    102c:	d10403ff 	sub	sp, sp, #0x100
    1030:	a90007e0 	stp	x0, x1, [sp]
    1034:	a9010fe2 	stp	x2, x3, [sp, #16]
    1038:	a90217e4 	stp	x4, x5, [sp, #32]
    103c:	a9031fe6 	stp	x6, x7, [sp, #48]
    1040:	a90427e8 	stp	x8, x9, [sp, #64]
    1044:	a9052fea 	stp	x10, x11, [sp, #80]
    1048:	a90637ec 	stp	x12, x13, [sp, #96]
    104c:	a9073fee 	stp	x14, x15, [sp, #112]
    1050:	a90847f0 	stp	x16, x17, [sp, #128]
    1054:	a9094ff2 	stp	x18, x19, [sp, #144]
    1058:	a90a57f4 	stp	x20, x21, [sp, #160]
    105c:	a90b5ff6 	stp	x22, x23, [sp, #176]
    1060:	a90c67f8 	stp	x24, x25, [sp, #192]
    1064:	a90d6ffa 	stp	x26, x27, [sp, #208]
    1068:	a90e77fc 	stp	x28, x29, [sp, #224]
    106c:	f9007bfe 	str	x30, [sp, #240]
    1070:	94000000 	bl	0 <irq_el1t>
    1074:	a94007e0 	ldp	x0, x1, [sp]
    1078:	a9410fe2 	ldp	x2, x3, [sp, #16]
    107c:	a94217e4 	ldp	x4, x5, [sp, #32]
    1080:	a9431fe6 	ldp	x6, x7, [sp, #48]
    1084:	a94427e8 	ldp	x8, x9, [sp, #64]
    1088:	a9452fea 	ldp	x10, x11, [sp, #80]
    108c:	a94637ec 	ldp	x12, x13, [sp, #96]
    1090:	a9473fee 	ldp	x14, x15, [sp, #112]
    1094:	a94847f0 	ldp	x16, x17, [sp, #128]
    1098:	a9494ff2 	ldp	x18, x19, [sp, #144]
    109c:	a94a57f4 	ldp	x20, x21, [sp, #160]
    10a0:	a94b5ff6 	ldp	x22, x23, [sp, #176]
    10a4:	a94c67f8 	ldp	x24, x25, [sp, #192]
    10a8:	a94d6ffa 	ldp	x26, x27, [sp, #208]
    10ac:	a94e77fc 	ldp	x28, x29, [sp, #224]
    10b0:	f9407bfe 	ldr	x30, [sp, #240]
    10b4:	910403ff 	add	sp, sp, #0x100
    10b8:	d69f03e0 	eret

00000000000010bc <__fiq_el1t>:
    10bc:	910003e1 	mov	x1, sp
    10c0:	927cec21 	and	x1, x1, #0xfffffffffffffff0
    10c4:	9100003f 	mov	sp, x1
    10c8:	d10403ff 	sub	sp, sp, #0x100
    10cc:	a90007e0 	stp	x0, x1, [sp]
    10d0:	a9010fe2 	stp	x2, x3, [sp, #16]
    10d4:	a90217e4 	stp	x4, x5, [sp, #32]
    10d8:	a9031fe6 	stp	x6, x7, [sp, #48]
    10dc:	a90427e8 	stp	x8, x9, [sp, #64]
    10e0:	a9052fea 	stp	x10, x11, [sp, #80]
    10e4:	a90637ec 	stp	x12, x13, [sp, #96]
    10e8:	a9073fee 	stp	x14, x15, [sp, #112]
    10ec:	a90847f0 	stp	x16, x17, [sp, #128]
    10f0:	a9094ff2 	stp	x18, x19, [sp, #144]
    10f4:	a90a57f4 	stp	x20, x21, [sp, #160]
    10f8:	a90b5ff6 	stp	x22, x23, [sp, #176]
    10fc:	a90c67f8 	stp	x24, x25, [sp, #192]
    1100:	a90d6ffa 	stp	x26, x27, [sp, #208]
    1104:	a90e77fc 	stp	x28, x29, [sp, #224]
    1108:	f9007bfe 	str	x30, [sp, #240]
    110c:	94000000 	bl	0 <fiq_el1t>
    1110:	a94007e0 	ldp	x0, x1, [sp]
    1114:	a9410fe2 	ldp	x2, x3, [sp, #16]
    1118:	a94217e4 	ldp	x4, x5, [sp, #32]
    111c:	a9431fe6 	ldp	x6, x7, [sp, #48]
    1120:	a94427e8 	ldp	x8, x9, [sp, #64]
    1124:	a9452fea 	ldp	x10, x11, [sp, #80]
    1128:	a94637ec 	ldp	x12, x13, [sp, #96]
    112c:	a9473fee 	ldp	x14, x15, [sp, #112]
    1130:	a94847f0 	ldp	x16, x17, [sp, #128]
    1134:	a9494ff2 	ldp	x18, x19, [sp, #144]
    1138:	a94a57f4 	ldp	x20, x21, [sp, #160]
    113c:	a94b5ff6 	ldp	x22, x23, [sp, #176]
    1140:	a94c67f8 	ldp	x24, x25, [sp, #192]
    1144:	a94d6ffa 	ldp	x26, x27, [sp, #208]
    1148:	a94e77fc 	ldp	x28, x29, [sp, #224]
    114c:	f9407bfe 	ldr	x30, [sp, #240]
    1150:	910403ff 	add	sp, sp, #0x100
    1154:	d69f03e0 	eret

0000000000001158 <__err_el1t>:
    1158:	910003e1 	mov	x1, sp
    115c:	927cec21 	and	x1, x1, #0xfffffffffffffff0
    1160:	9100003f 	mov	sp, x1
    1164:	d10403ff 	sub	sp, sp, #0x100
    1168:	a90007e0 	stp	x0, x1, [sp]
    116c:	a9010fe2 	stp	x2, x3, [sp, #16]
    1170:	a90217e4 	stp	x4, x5, [sp, #32]
    1174:	a9031fe6 	stp	x6, x7, [sp, #48]
    1178:	a90427e8 	stp	x8, x9, [sp, #64]
    117c:	a9052fea 	stp	x10, x11, [sp, #80]
    1180:	a90637ec 	stp	x12, x13, [sp, #96]
    1184:	a9073fee 	stp	x14, x15, [sp, #112]
    1188:	a90847f0 	stp	x16, x17, [sp, #128]
    118c:	a9094ff2 	stp	x18, x19, [sp, #144]
    1190:	a90a57f4 	stp	x20, x21, [sp, #160]
    1194:	a90b5ff6 	stp	x22, x23, [sp, #176]
    1198:	a90c67f8 	stp	x24, x25, [sp, #192]
    119c:	a90d6ffa 	stp	x26, x27, [sp, #208]
    11a0:	a90e77fc 	stp	x28, x29, [sp, #224]
    11a4:	f9007bfe 	str	x30, [sp, #240]
    11a8:	94000000 	bl	0 <serror_el1t>
    11ac:	a94007e0 	ldp	x0, x1, [sp]
    11b0:	a9410fe2 	ldp	x2, x3, [sp, #16]
    11b4:	a94217e4 	ldp	x4, x5, [sp, #32]
    11b8:	a9431fe6 	ldp	x6, x7, [sp, #48]
    11bc:	a94427e8 	ldp	x8, x9, [sp, #64]
    11c0:	a9452fea 	ldp	x10, x11, [sp, #80]
    11c4:	a94637ec 	ldp	x12, x13, [sp, #96]
    11c8:	a9473fee 	ldp	x14, x15, [sp, #112]
    11cc:	a94847f0 	ldp	x16, x17, [sp, #128]
    11d0:	a9494ff2 	ldp	x18, x19, [sp, #144]
    11d4:	a94a57f4 	ldp	x20, x21, [sp, #160]
    11d8:	a94b5ff6 	ldp	x22, x23, [sp, #176]
    11dc:	a94c67f8 	ldp	x24, x25, [sp, #192]
    11e0:	a94d6ffa 	ldp	x26, x27, [sp, #208]
    11e4:	a94e77fc 	ldp	x28, x29, [sp, #224]
    11e8:	f9407bfe 	ldr	x30, [sp, #240]
    11ec:	910403ff 	add	sp, sp, #0x100
    11f0:	d69f03e0 	eret

00000000000011f4 <__sync_el1h>:
    11f4:	910003e1 	mov	x1, sp
    11f8:	927cec21 	and	x1, x1, #0xfffffffffffffff0
    11fc:	9100003f 	mov	sp, x1
    1200:	d10403ff 	sub	sp, sp, #0x100
    1204:	a90007e0 	stp	x0, x1, [sp]
    1208:	a9010fe2 	stp	x2, x3, [sp, #16]
    120c:	a90217e4 	stp	x4, x5, [sp, #32]
    1210:	a9031fe6 	stp	x6, x7, [sp, #48]
    1214:	a90427e8 	stp	x8, x9, [sp, #64]
    1218:	a9052fea 	stp	x10, x11, [sp, #80]
    121c:	a90637ec 	stp	x12, x13, [sp, #96]
    1220:	a9073fee 	stp	x14, x15, [sp, #112]
    1224:	a90847f0 	stp	x16, x17, [sp, #128]
    1228:	a9094ff2 	stp	x18, x19, [sp, #144]
    122c:	a90a57f4 	stp	x20, x21, [sp, #160]
    1230:	a90b5ff6 	stp	x22, x23, [sp, #176]
    1234:	a90c67f8 	stp	x24, x25, [sp, #192]
    1238:	a90d6ffa 	stp	x26, x27, [sp, #208]
    123c:	a90e77fc 	stp	x28, x29, [sp, #224]
    1240:	f9007bfe 	str	x30, [sp, #240]
    1244:	94000000 	bl	0 <sync_el1h>
    1248:	a94007e0 	ldp	x0, x1, [sp]
    124c:	a9410fe2 	ldp	x2, x3, [sp, #16]
    1250:	a94217e4 	ldp	x4, x5, [sp, #32]
    1254:	a9431fe6 	ldp	x6, x7, [sp, #48]
    1258:	a94427e8 	ldp	x8, x9, [sp, #64]
    125c:	a9452fea 	ldp	x10, x11, [sp, #80]
    1260:	a94637ec 	ldp	x12, x13, [sp, #96]
    1264:	a9473fee 	ldp	x14, x15, [sp, #112]
    1268:	a94847f0 	ldp	x16, x17, [sp, #128]
    126c:	a9494ff2 	ldp	x18, x19, [sp, #144]
    1270:	a94a57f4 	ldp	x20, x21, [sp, #160]
    1274:	a94b5ff6 	ldp	x22, x23, [sp, #176]
    1278:	a94c67f8 	ldp	x24, x25, [sp, #192]
    127c:	a94d6ffa 	ldp	x26, x27, [sp, #208]
    1280:	a94e77fc 	ldp	x28, x29, [sp, #224]
    1284:	f9407bfe 	ldr	x30, [sp, #240]
    1288:	910403ff 	add	sp, sp, #0x100
    128c:	d69f03e0 	eret

0000000000001290 <__irq_el1h>:
    1290:	910003e1 	mov	x1, sp
    1294:	927cec21 	and	x1, x1, #0xfffffffffffffff0
    1298:	9100003f 	mov	sp, x1
    129c:	d10403ff 	sub	sp, sp, #0x100
    12a0:	a90007e0 	stp	x0, x1, [sp]
    12a4:	a9010fe2 	stp	x2, x3, [sp, #16]
    12a8:	a90217e4 	stp	x4, x5, [sp, #32]
    12ac:	a9031fe6 	stp	x6, x7, [sp, #48]
    12b0:	a90427e8 	stp	x8, x9, [sp, #64]
    12b4:	a9052fea 	stp	x10, x11, [sp, #80]
    12b8:	a90637ec 	stp	x12, x13, [sp, #96]
    12bc:	a9073fee 	stp	x14, x15, [sp, #112]
    12c0:	a90847f0 	stp	x16, x17, [sp, #128]
    12c4:	a9094ff2 	stp	x18, x19, [sp, #144]
    12c8:	a90a57f4 	stp	x20, x21, [sp, #160]
    12cc:	a90b5ff6 	stp	x22, x23, [sp, #176]
    12d0:	a90c67f8 	stp	x24, x25, [sp, #192]
    12d4:	a90d6ffa 	stp	x26, x27, [sp, #208]
    12d8:	a90e77fc 	stp	x28, x29, [sp, #224]
    12dc:	f9007bfe 	str	x30, [sp, #240]
    12e0:	94000000 	bl	0 <irq_el1h>
    12e4:	a94007e0 	ldp	x0, x1, [sp]
    12e8:	a9410fe2 	ldp	x2, x3, [sp, #16]
    12ec:	a94217e4 	ldp	x4, x5, [sp, #32]
    12f0:	a9431fe6 	ldp	x6, x7, [sp, #48]
    12f4:	a94427e8 	ldp	x8, x9, [sp, #64]
    12f8:	a9452fea 	ldp	x10, x11, [sp, #80]
    12fc:	a94637ec 	ldp	x12, x13, [sp, #96]
    1300:	a9473fee 	ldp	x14, x15, [sp, #112]
    1304:	a94847f0 	ldp	x16, x17, [sp, #128]
    1308:	a9494ff2 	ldp	x18, x19, [sp, #144]
    130c:	a94a57f4 	ldp	x20, x21, [sp, #160]
    1310:	a94b5ff6 	ldp	x22, x23, [sp, #176]
    1314:	a94c67f8 	ldp	x24, x25, [sp, #192]
    1318:	a94d6ffa 	ldp	x26, x27, [sp, #208]
    131c:	a94e77fc 	ldp	x28, x29, [sp, #224]
    1320:	f9407bfe 	ldr	x30, [sp, #240]
    1324:	910403ff 	add	sp, sp, #0x100
    1328:	d69f03e0 	eret

000000000000132c <__fiq_el1h>:
    132c:	910003e1 	mov	x1, sp
    1330:	927cec21 	and	x1, x1, #0xfffffffffffffff0
    1334:	9100003f 	mov	sp, x1
    1338:	d10403ff 	sub	sp, sp, #0x100
    133c:	a90007e0 	stp	x0, x1, [sp]
    1340:	a9010fe2 	stp	x2, x3, [sp, #16]
    1344:	a90217e4 	stp	x4, x5, [sp, #32]
    1348:	a9031fe6 	stp	x6, x7, [sp, #48]
    134c:	a90427e8 	stp	x8, x9, [sp, #64]
    1350:	a9052fea 	stp	x10, x11, [sp, #80]
    1354:	a90637ec 	stp	x12, x13, [sp, #96]
    1358:	a9073fee 	stp	x14, x15, [sp, #112]
    135c:	a90847f0 	stp	x16, x17, [sp, #128]
    1360:	a9094ff2 	stp	x18, x19, [sp, #144]
    1364:	a90a57f4 	stp	x20, x21, [sp, #160]
    1368:	a90b5ff6 	stp	x22, x23, [sp, #176]
    136c:	a90c67f8 	stp	x24, x25, [sp, #192]
    1370:	a90d6ffa 	stp	x26, x27, [sp, #208]
    1374:	a90e77fc 	stp	x28, x29, [sp, #224]
    1378:	f9007bfe 	str	x30, [sp, #240]
    137c:	94000000 	bl	0 <fiq_el1h>
    1380:	a94007e0 	ldp	x0, x1, [sp]
    1384:	a9410fe2 	ldp	x2, x3, [sp, #16]
    1388:	a94217e4 	ldp	x4, x5, [sp, #32]
    138c:	a9431fe6 	ldp	x6, x7, [sp, #48]
    1390:	a94427e8 	ldp	x8, x9, [sp, #64]
    1394:	a9452fea 	ldp	x10, x11, [sp, #80]
    1398:	a94637ec 	ldp	x12, x13, [sp, #96]
    139c:	a9473fee 	ldp	x14, x15, [sp, #112]
    13a0:	a94847f0 	ldp	x16, x17, [sp, #128]
    13a4:	a9494ff2 	ldp	x18, x19, [sp, #144]
    13a8:	a94a57f4 	ldp	x20, x21, [sp, #160]
    13ac:	a94b5ff6 	ldp	x22, x23, [sp, #176]
    13b0:	a94c67f8 	ldp	x24, x25, [sp, #192]
    13b4:	a94d6ffa 	ldp	x26, x27, [sp, #208]
    13b8:	a94e77fc 	ldp	x28, x29, [sp, #224]
    13bc:	f9407bfe 	ldr	x30, [sp, #240]
    13c0:	910403ff 	add	sp, sp, #0x100
    13c4:	d69f03e0 	eret

00000000000013c8 <__err_el1h>:
    13c8:	910003e1 	mov	x1, sp
    13cc:	927cec21 	and	x1, x1, #0xfffffffffffffff0
    13d0:	9100003f 	mov	sp, x1
    13d4:	d10403ff 	sub	sp, sp, #0x100
    13d8:	a90007e0 	stp	x0, x1, [sp]
    13dc:	a9010fe2 	stp	x2, x3, [sp, #16]
    13e0:	a90217e4 	stp	x4, x5, [sp, #32]
    13e4:	a9031fe6 	stp	x6, x7, [sp, #48]
    13e8:	a90427e8 	stp	x8, x9, [sp, #64]
    13ec:	a9052fea 	stp	x10, x11, [sp, #80]
    13f0:	a90637ec 	stp	x12, x13, [sp, #96]
    13f4:	a9073fee 	stp	x14, x15, [sp, #112]
    13f8:	a90847f0 	stp	x16, x17, [sp, #128]
    13fc:	a9094ff2 	stp	x18, x19, [sp, #144]
    1400:	a90a57f4 	stp	x20, x21, [sp, #160]
    1404:	a90b5ff6 	stp	x22, x23, [sp, #176]
    1408:	a90c67f8 	stp	x24, x25, [sp, #192]
    140c:	a90d6ffa 	stp	x26, x27, [sp, #208]
    1410:	a90e77fc 	stp	x28, x29, [sp, #224]
    1414:	f9007bfe 	str	x30, [sp, #240]
    1418:	94000000 	bl	0 <serror_el1h>
    141c:	a94007e0 	ldp	x0, x1, [sp]
    1420:	a9410fe2 	ldp	x2, x3, [sp, #16]
    1424:	a94217e4 	ldp	x4, x5, [sp, #32]
    1428:	a9431fe6 	ldp	x6, x7, [sp, #48]
    142c:	a94427e8 	ldp	x8, x9, [sp, #64]
    1430:	a9452fea 	ldp	x10, x11, [sp, #80]
    1434:	a94637ec 	ldp	x12, x13, [sp, #96]
    1438:	a9473fee 	ldp	x14, x15, [sp, #112]
    143c:	a94847f0 	ldp	x16, x17, [sp, #128]
    1440:	a9494ff2 	ldp	x18, x19, [sp, #144]
    1444:	a94a57f4 	ldp	x20, x21, [sp, #160]
    1448:	a94b5ff6 	ldp	x22, x23, [sp, #176]
    144c:	a94c67f8 	ldp	x24, x25, [sp, #192]
    1450:	a94d6ffa 	ldp	x26, x27, [sp, #208]
    1454:	a94e77fc 	ldp	x28, x29, [sp, #224]
    1458:	f9407bfe 	ldr	x30, [sp, #240]
    145c:	910403ff 	add	sp, sp, #0x100
    1460:	d69f03e0 	eret

0000000000001464 <__sync_el0_64>:
    1464:	910003e1 	mov	x1, sp
    1468:	927cec21 	and	x1, x1, #0xfffffffffffffff0
    146c:	9100003f 	mov	sp, x1
    1470:	d10403ff 	sub	sp, sp, #0x100
    1474:	a90007e0 	stp	x0, x1, [sp]
    1478:	a9010fe2 	stp	x2, x3, [sp, #16]
    147c:	a90217e4 	stp	x4, x5, [sp, #32]
    1480:	a9031fe6 	stp	x6, x7, [sp, #48]
    1484:	a90427e8 	stp	x8, x9, [sp, #64]
    1488:	a9052fea 	stp	x10, x11, [sp, #80]
    148c:	a90637ec 	stp	x12, x13, [sp, #96]
    1490:	a9073fee 	stp	x14, x15, [sp, #112]
    1494:	a90847f0 	stp	x16, x17, [sp, #128]
    1498:	a9094ff2 	stp	x18, x19, [sp, #144]
    149c:	a90a57f4 	stp	x20, x21, [sp, #160]
    14a0:	a90b5ff6 	stp	x22, x23, [sp, #176]
    14a4:	a90c67f8 	stp	x24, x25, [sp, #192]
    14a8:	a90d6ffa 	stp	x26, x27, [sp, #208]
    14ac:	a90e77fc 	stp	x28, x29, [sp, #224]
    14b0:	f9007bfe 	str	x30, [sp, #240]
    14b4:	94000000 	bl	0 <sync_el0_64>
    14b8:	a94007e0 	ldp	x0, x1, [sp]
    14bc:	a9410fe2 	ldp	x2, x3, [sp, #16]
    14c0:	a94217e4 	ldp	x4, x5, [sp, #32]
    14c4:	a9431fe6 	ldp	x6, x7, [sp, #48]
    14c8:	a94427e8 	ldp	x8, x9, [sp, #64]
    14cc:	a9452fea 	ldp	x10, x11, [sp, #80]
    14d0:	a94637ec 	ldp	x12, x13, [sp, #96]
    14d4:	a9473fee 	ldp	x14, x15, [sp, #112]
    14d8:	a94847f0 	ldp	x16, x17, [sp, #128]
    14dc:	a9494ff2 	ldp	x18, x19, [sp, #144]
    14e0:	a94a57f4 	ldp	x20, x21, [sp, #160]
    14e4:	a94b5ff6 	ldp	x22, x23, [sp, #176]
    14e8:	a94c67f8 	ldp	x24, x25, [sp, #192]
    14ec:	a94d6ffa 	ldp	x26, x27, [sp, #208]
    14f0:	a94e77fc 	ldp	x28, x29, [sp, #224]
    14f4:	f9407bfe 	ldr	x30, [sp, #240]
    14f8:	910403ff 	add	sp, sp, #0x100
    14fc:	d69f03e0 	eret

0000000000001500 <__irq_el0_64>:
    1500:	910003e1 	mov	x1, sp
    1504:	927cec21 	and	x1, x1, #0xfffffffffffffff0
    1508:	9100003f 	mov	sp, x1
    150c:	d10403ff 	sub	sp, sp, #0x100
    1510:	a90007e0 	stp	x0, x1, [sp]
    1514:	a9010fe2 	stp	x2, x3, [sp, #16]
    1518:	a90217e4 	stp	x4, x5, [sp, #32]
    151c:	a9031fe6 	stp	x6, x7, [sp, #48]
    1520:	a90427e8 	stp	x8, x9, [sp, #64]
    1524:	a9052fea 	stp	x10, x11, [sp, #80]
    1528:	a90637ec 	stp	x12, x13, [sp, #96]
    152c:	a9073fee 	stp	x14, x15, [sp, #112]
    1530:	a90847f0 	stp	x16, x17, [sp, #128]
    1534:	a9094ff2 	stp	x18, x19, [sp, #144]
    1538:	a90a57f4 	stp	x20, x21, [sp, #160]
    153c:	a90b5ff6 	stp	x22, x23, [sp, #176]
    1540:	a90c67f8 	stp	x24, x25, [sp, #192]
    1544:	a90d6ffa 	stp	x26, x27, [sp, #208]
    1548:	a90e77fc 	stp	x28, x29, [sp, #224]
    154c:	f9007bfe 	str	x30, [sp, #240]
    1550:	94000000 	bl	0 <irq_el0_64>
    1554:	a94007e0 	ldp	x0, x1, [sp]
    1558:	a9410fe2 	ldp	x2, x3, [sp, #16]
    155c:	a94217e4 	ldp	x4, x5, [sp, #32]
    1560:	a9431fe6 	ldp	x6, x7, [sp, #48]
    1564:	a94427e8 	ldp	x8, x9, [sp, #64]
    1568:	a9452fea 	ldp	x10, x11, [sp, #80]
    156c:	a94637ec 	ldp	x12, x13, [sp, #96]
    1570:	a9473fee 	ldp	x14, x15, [sp, #112]
    1574:	a94847f0 	ldp	x16, x17, [sp, #128]
    1578:	a9494ff2 	ldp	x18, x19, [sp, #144]
    157c:	a94a57f4 	ldp	x20, x21, [sp, #160]
    1580:	a94b5ff6 	ldp	x22, x23, [sp, #176]
    1584:	a94c67f8 	ldp	x24, x25, [sp, #192]
    1588:	a94d6ffa 	ldp	x26, x27, [sp, #208]
    158c:	a94e77fc 	ldp	x28, x29, [sp, #224]
    1590:	f9407bfe 	ldr	x30, [sp, #240]
    1594:	910403ff 	add	sp, sp, #0x100
    1598:	d69f03e0 	eret

000000000000159c <__fiq_el0_64>:
    159c:	910003e1 	mov	x1, sp
    15a0:	927cec21 	and	x1, x1, #0xfffffffffffffff0
    15a4:	9100003f 	mov	sp, x1
    15a8:	d10403ff 	sub	sp, sp, #0x100
    15ac:	a90007e0 	stp	x0, x1, [sp]
    15b0:	a9010fe2 	stp	x2, x3, [sp, #16]
    15b4:	a90217e4 	stp	x4, x5, [sp, #32]
    15b8:	a9031fe6 	stp	x6, x7, [sp, #48]
    15bc:	a90427e8 	stp	x8, x9, [sp, #64]
    15c0:	a9052fea 	stp	x10, x11, [sp, #80]
    15c4:	a90637ec 	stp	x12, x13, [sp, #96]
    15c8:	a9073fee 	stp	x14, x15, [sp, #112]
    15cc:	a90847f0 	stp	x16, x17, [sp, #128]
    15d0:	a9094ff2 	stp	x18, x19, [sp, #144]
    15d4:	a90a57f4 	stp	x20, x21, [sp, #160]
    15d8:	a90b5ff6 	stp	x22, x23, [sp, #176]
    15dc:	a90c67f8 	stp	x24, x25, [sp, #192]
    15e0:	a90d6ffa 	stp	x26, x27, [sp, #208]
    15e4:	a90e77fc 	stp	x28, x29, [sp, #224]
    15e8:	f9007bfe 	str	x30, [sp, #240]
    15ec:	94000000 	bl	0 <fiq_el0_64>
    15f0:	a94007e0 	ldp	x0, x1, [sp]
    15f4:	a9410fe2 	ldp	x2, x3, [sp, #16]
    15f8:	a94217e4 	ldp	x4, x5, [sp, #32]
    15fc:	a9431fe6 	ldp	x6, x7, [sp, #48]
    1600:	a94427e8 	ldp	x8, x9, [sp, #64]
    1604:	a9452fea 	ldp	x10, x11, [sp, #80]
    1608:	a94637ec 	ldp	x12, x13, [sp, #96]
    160c:	a9473fee 	ldp	x14, x15, [sp, #112]
    1610:	a94847f0 	ldp	x16, x17, [sp, #128]
    1614:	a9494ff2 	ldp	x18, x19, [sp, #144]
    1618:	a94a57f4 	ldp	x20, x21, [sp, #160]
    161c:	a94b5ff6 	ldp	x22, x23, [sp, #176]
    1620:	a94c67f8 	ldp	x24, x25, [sp, #192]
    1624:	a94d6ffa 	ldp	x26, x27, [sp, #208]
    1628:	a94e77fc 	ldp	x28, x29, [sp, #224]
    162c:	f9407bfe 	ldr	x30, [sp, #240]
    1630:	910403ff 	add	sp, sp, #0x100
    1634:	d69f03e0 	eret

0000000000001638 <__err_el0_64>:
    1638:	910003e1 	mov	x1, sp
    163c:	927cec21 	and	x1, x1, #0xfffffffffffffff0
    1640:	9100003f 	mov	sp, x1
    1644:	d10403ff 	sub	sp, sp, #0x100
    1648:	a90007e0 	stp	x0, x1, [sp]
    164c:	a9010fe2 	stp	x2, x3, [sp, #16]
    1650:	a90217e4 	stp	x4, x5, [sp, #32]
    1654:	a9031fe6 	stp	x6, x7, [sp, #48]
    1658:	a90427e8 	stp	x8, x9, [sp, #64]
    165c:	a9052fea 	stp	x10, x11, [sp, #80]
    1660:	a90637ec 	stp	x12, x13, [sp, #96]
    1664:	a9073fee 	stp	x14, x15, [sp, #112]
    1668:	a90847f0 	stp	x16, x17, [sp, #128]
    166c:	a9094ff2 	stp	x18, x19, [sp, #144]
    1670:	a90a57f4 	stp	x20, x21, [sp, #160]
    1674:	a90b5ff6 	stp	x22, x23, [sp, #176]
    1678:	a90c67f8 	stp	x24, x25, [sp, #192]
    167c:	a90d6ffa 	stp	x26, x27, [sp, #208]
    1680:	a90e77fc 	stp	x28, x29, [sp, #224]
    1684:	f9007bfe 	str	x30, [sp, #240]
    1688:	94000000 	bl	0 <serror_el0_64>
    168c:	a94007e0 	ldp	x0, x1, [sp]
    1690:	a9410fe2 	ldp	x2, x3, [sp, #16]
    1694:	a94217e4 	ldp	x4, x5, [sp, #32]
    1698:	a9431fe6 	ldp	x6, x7, [sp, #48]
    169c:	a94427e8 	ldp	x8, x9, [sp, #64]
    16a0:	a9452fea 	ldp	x10, x11, [sp, #80]
    16a4:	a94637ec 	ldp	x12, x13, [sp, #96]
    16a8:	a9473fee 	ldp	x14, x15, [sp, #112]
    16ac:	a94847f0 	ldp	x16, x17, [sp, #128]
    16b0:	a9494ff2 	ldp	x18, x19, [sp, #144]
    16b4:	a94a57f4 	ldp	x20, x21, [sp, #160]
    16b8:	a94b5ff6 	ldp	x22, x23, [sp, #176]
    16bc:	a94c67f8 	ldp	x24, x25, [sp, #192]
    16c0:	a94d6ffa 	ldp	x26, x27, [sp, #208]
    16c4:	a94e77fc 	ldp	x28, x29, [sp, #224]
    16c8:	f9407bfe 	ldr	x30, [sp, #240]
    16cc:	910403ff 	add	sp, sp, #0x100
    16d0:	d69f03e0 	eret

00000000000016d4 <__sync_el0_32>:
    16d4:	910003e1 	mov	x1, sp
    16d8:	927cec21 	and	x1, x1, #0xfffffffffffffff0
    16dc:	9100003f 	mov	sp, x1
    16e0:	d10403ff 	sub	sp, sp, #0x100
    16e4:	a90007e0 	stp	x0, x1, [sp]
    16e8:	a9010fe2 	stp	x2, x3, [sp, #16]
    16ec:	a90217e4 	stp	x4, x5, [sp, #32]
    16f0:	a9031fe6 	stp	x6, x7, [sp, #48]
    16f4:	a90427e8 	stp	x8, x9, [sp, #64]
    16f8:	a9052fea 	stp	x10, x11, [sp, #80]
    16fc:	a90637ec 	stp	x12, x13, [sp, #96]
    1700:	a9073fee 	stp	x14, x15, [sp, #112]
    1704:	a90847f0 	stp	x16, x17, [sp, #128]
    1708:	a9094ff2 	stp	x18, x19, [sp, #144]
    170c:	a90a57f4 	stp	x20, x21, [sp, #160]
    1710:	a90b5ff6 	stp	x22, x23, [sp, #176]
    1714:	a90c67f8 	stp	x24, x25, [sp, #192]
    1718:	a90d6ffa 	stp	x26, x27, [sp, #208]
    171c:	a90e77fc 	stp	x28, x29, [sp, #224]
    1720:	f9007bfe 	str	x30, [sp, #240]
    1724:	94000000 	bl	0 <sync_el0_32>
    1728:	a94007e0 	ldp	x0, x1, [sp]
    172c:	a9410fe2 	ldp	x2, x3, [sp, #16]
    1730:	a94217e4 	ldp	x4, x5, [sp, #32]
    1734:	a9431fe6 	ldp	x6, x7, [sp, #48]
    1738:	a94427e8 	ldp	x8, x9, [sp, #64]
    173c:	a9452fea 	ldp	x10, x11, [sp, #80]
    1740:	a94637ec 	ldp	x12, x13, [sp, #96]
    1744:	a9473fee 	ldp	x14, x15, [sp, #112]
    1748:	a94847f0 	ldp	x16, x17, [sp, #128]
    174c:	a9494ff2 	ldp	x18, x19, [sp, #144]
    1750:	a94a57f4 	ldp	x20, x21, [sp, #160]
    1754:	a94b5ff6 	ldp	x22, x23, [sp, #176]
    1758:	a94c67f8 	ldp	x24, x25, [sp, #192]
    175c:	a94d6ffa 	ldp	x26, x27, [sp, #208]
    1760:	a94e77fc 	ldp	x28, x29, [sp, #224]
    1764:	f9407bfe 	ldr	x30, [sp, #240]
    1768:	910403ff 	add	sp, sp, #0x100
    176c:	d69f03e0 	eret

0000000000001770 <__irq_el0_32>:
    1770:	910003e1 	mov	x1, sp
    1774:	927cec21 	and	x1, x1, #0xfffffffffffffff0
    1778:	9100003f 	mov	sp, x1
    177c:	d10403ff 	sub	sp, sp, #0x100
    1780:	a90007e0 	stp	x0, x1, [sp]
    1784:	a9010fe2 	stp	x2, x3, [sp, #16]
    1788:	a90217e4 	stp	x4, x5, [sp, #32]
    178c:	a9031fe6 	stp	x6, x7, [sp, #48]
    1790:	a90427e8 	stp	x8, x9, [sp, #64]
    1794:	a9052fea 	stp	x10, x11, [sp, #80]
    1798:	a90637ec 	stp	x12, x13, [sp, #96]
    179c:	a9073fee 	stp	x14, x15, [sp, #112]
    17a0:	a90847f0 	stp	x16, x17, [sp, #128]
    17a4:	a9094ff2 	stp	x18, x19, [sp, #144]
    17a8:	a90a57f4 	stp	x20, x21, [sp, #160]
    17ac:	a90b5ff6 	stp	x22, x23, [sp, #176]
    17b0:	a90c67f8 	stp	x24, x25, [sp, #192]
    17b4:	a90d6ffa 	stp	x26, x27, [sp, #208]
    17b8:	a90e77fc 	stp	x28, x29, [sp, #224]
    17bc:	f9007bfe 	str	x30, [sp, #240]
    17c0:	94000000 	bl	0 <irq_el0_32>
    17c4:	a94007e0 	ldp	x0, x1, [sp]
    17c8:	a9410fe2 	ldp	x2, x3, [sp, #16]
    17cc:	a94217e4 	ldp	x4, x5, [sp, #32]
    17d0:	a9431fe6 	ldp	x6, x7, [sp, #48]
    17d4:	a94427e8 	ldp	x8, x9, [sp, #64]
    17d8:	a9452fea 	ldp	x10, x11, [sp, #80]
    17dc:	a94637ec 	ldp	x12, x13, [sp, #96]
    17e0:	a9473fee 	ldp	x14, x15, [sp, #112]
    17e4:	a94847f0 	ldp	x16, x17, [sp, #128]
    17e8:	a9494ff2 	ldp	x18, x19, [sp, #144]
    17ec:	a94a57f4 	ldp	x20, x21, [sp, #160]
    17f0:	a94b5ff6 	ldp	x22, x23, [sp, #176]
    17f4:	a94c67f8 	ldp	x24, x25, [sp, #192]
    17f8:	a94d6ffa 	ldp	x26, x27, [sp, #208]
    17fc:	a94e77fc 	ldp	x28, x29, [sp, #224]
    1800:	f9407bfe 	ldr	x30, [sp, #240]
    1804:	910403ff 	add	sp, sp, #0x100
    1808:	d69f03e0 	eret

000000000000180c <__fiq_el0_32>:
    180c:	910003e1 	mov	x1, sp
    1810:	927cec21 	and	x1, x1, #0xfffffffffffffff0
    1814:	9100003f 	mov	sp, x1
    1818:	d10403ff 	sub	sp, sp, #0x100
    181c:	a90007e0 	stp	x0, x1, [sp]
    1820:	a9010fe2 	stp	x2, x3, [sp, #16]
    1824:	a90217e4 	stp	x4, x5, [sp, #32]
    1828:	a9031fe6 	stp	x6, x7, [sp, #48]
    182c:	a90427e8 	stp	x8, x9, [sp, #64]
    1830:	a9052fea 	stp	x10, x11, [sp, #80]
    1834:	a90637ec 	stp	x12, x13, [sp, #96]
    1838:	a9073fee 	stp	x14, x15, [sp, #112]
    183c:	a90847f0 	stp	x16, x17, [sp, #128]
    1840:	a9094ff2 	stp	x18, x19, [sp, #144]
    1844:	a90a57f4 	stp	x20, x21, [sp, #160]
    1848:	a90b5ff6 	stp	x22, x23, [sp, #176]
    184c:	a90c67f8 	stp	x24, x25, [sp, #192]
    1850:	a90d6ffa 	stp	x26, x27, [sp, #208]
    1854:	a90e77fc 	stp	x28, x29, [sp, #224]
    1858:	f9007bfe 	str	x30, [sp, #240]
    185c:	94000000 	bl	0 <fiq_el0_32>
    1860:	a94007e0 	ldp	x0, x1, [sp]
    1864:	a9410fe2 	ldp	x2, x3, [sp, #16]
    1868:	a94217e4 	ldp	x4, x5, [sp, #32]
    186c:	a9431fe6 	ldp	x6, x7, [sp, #48]
    1870:	a94427e8 	ldp	x8, x9, [sp, #64]
    1874:	a9452fea 	ldp	x10, x11, [sp, #80]
    1878:	a94637ec 	ldp	x12, x13, [sp, #96]
    187c:	a9473fee 	ldp	x14, x15, [sp, #112]
    1880:	a94847f0 	ldp	x16, x17, [sp, #128]
    1884:	a9494ff2 	ldp	x18, x19, [sp, #144]
    1888:	a94a57f4 	ldp	x20, x21, [sp, #160]
    188c:	a94b5ff6 	ldp	x22, x23, [sp, #176]
    1890:	a94c67f8 	ldp	x24, x25, [sp, #192]
    1894:	a94d6ffa 	ldp	x26, x27, [sp, #208]
    1898:	a94e77fc 	ldp	x28, x29, [sp, #224]
    189c:	f9407bfe 	ldr	x30, [sp, #240]
    18a0:	910403ff 	add	sp, sp, #0x100
    18a4:	d69f03e0 	eret

00000000000018a8 <__err_el0_32>:
    18a8:	910003e1 	mov	x1, sp
    18ac:	927cec21 	and	x1, x1, #0xfffffffffffffff0
    18b0:	9100003f 	mov	sp, x1
    18b4:	d10403ff 	sub	sp, sp, #0x100
    18b8:	a90007e0 	stp	x0, x1, [sp]
    18bc:	a9010fe2 	stp	x2, x3, [sp, #16]
    18c0:	a90217e4 	stp	x4, x5, [sp, #32]
    18c4:	a9031fe6 	stp	x6, x7, [sp, #48]
    18c8:	a90427e8 	stp	x8, x9, [sp, #64]
    18cc:	a9052fea 	stp	x10, x11, [sp, #80]
    18d0:	a90637ec 	stp	x12, x13, [sp, #96]
    18d4:	a9073fee 	stp	x14, x15, [sp, #112]
    18d8:	a90847f0 	stp	x16, x17, [sp, #128]
    18dc:	a9094ff2 	stp	x18, x19, [sp, #144]
    18e0:	a90a57f4 	stp	x20, x21, [sp, #160]
    18e4:	a90b5ff6 	stp	x22, x23, [sp, #176]
    18e8:	a90c67f8 	stp	x24, x25, [sp, #192]
    18ec:	a90d6ffa 	stp	x26, x27, [sp, #208]
    18f0:	a90e77fc 	stp	x28, x29, [sp, #224]
    18f4:	f9007bfe 	str	x30, [sp, #240]
    18f8:	94000000 	bl	0 <serror_el0_32>
    18fc:	a94007e0 	ldp	x0, x1, [sp]
    1900:	a9410fe2 	ldp	x2, x3, [sp, #16]
    1904:	a94217e4 	ldp	x4, x5, [sp, #32]
    1908:	a9431fe6 	ldp	x6, x7, [sp, #48]
    190c:	a94427e8 	ldp	x8, x9, [sp, #64]
    1910:	a9452fea 	ldp	x10, x11, [sp, #80]
    1914:	a94637ec 	ldp	x12, x13, [sp, #96]
    1918:	a9473fee 	ldp	x14, x15, [sp, #112]
    191c:	a94847f0 	ldp	x16, x17, [sp, #128]
    1920:	a9494ff2 	ldp	x18, x19, [sp, #144]
    1924:	a94a57f4 	ldp	x20, x21, [sp, #160]
    1928:	a94b5ff6 	ldp	x22, x23, [sp, #176]
    192c:	a94c67f8 	ldp	x24, x25, [sp, #192]
    1930:	a94d6ffa 	ldp	x26, x27, [sp, #208]
    1934:	a94e77fc 	ldp	x28, x29, [sp, #224]
    1938:	f9407bfe 	ldr	x30, [sp, #240]
    193c:	910403ff 	add	sp, sp, #0x100
    1940:	d69f03e0 	eret
